target datalayout = "e-m:e-p270:32:32-p271:32:32-p272:64:64-i64:64-i128:128-f80:128-n8:16:32:64-S128"
target triple = "x86_64-pc-linux-gnu"

%struct.evp_pkey_st = type { i32, i32, ptr, ptr, ptr, %union.legacy_pkey_st, %union.legacy_pkey_st, %struct.CRYPTO_REF_COUNT, ptr, ptr, i32, i8, %struct.crypto_ex_data_st, ptr, ptr, i64, ptr, i64, %struct.anon }
%union.legacy_pkey_st = type { ptr }
%struct.CRYPTO_REF_COUNT = type { i32 }
%struct.crypto_ex_data_st = type { ptr, ptr }
%struct.anon = type { i32, i32, i32 }
%struct.ossl_param_st = type { ptr, i32, ptr, i64, i64 }

@.str = private unnamed_addr constant [30 x i8] c"../openssl/crypto/evp/p_lib.c\00", align 1
@__func__.EVP_PKEY_get_params = private unnamed_addr constant [20 x i8] c"EVP_PKEY_get_params\00", align 1

; Function Attrs: nounwind uwtable
define i32 @EVP_PKEY_get_params(ptr noundef %0, ptr noundef %1) #0 {
  %3 = alloca i32, align 4
  %4 = alloca ptr, align 8
  %5 = alloca ptr, align 8
  store ptr %0, ptr %4, align 8, !tbaa !3
  store ptr %1, ptr %5, align 8, !tbaa !82
  %6 = load ptr, ptr %4, align 8, !tbaa !3
  %7 = icmp ne ptr %6, null
  br i1 %7, label %8, label %42

8:                                                ; preds = %2
  %9 = load ptr, ptr %4, align 8, !tbaa !3
  %10 = getelementptr inbounds nuw %struct.evp_pkey_st, ptr %9, i32 0, i32 13
  %11 = load ptr, ptr %10, align 8, !tbaa !32
  %12 = icmp ne ptr %11, null
  br i1 %12, label %13, label %24

13:                                               ; preds = %8
  %14 = load ptr, ptr %4, align 8, !tbaa !3
  %15 = getelementptr inbounds nuw %struct.evp_pkey_st, ptr %14, i32 0, i32 13
  %16 = load ptr, ptr %15, align 8, !tbaa !32
  %17 = load ptr, ptr %4, align 8, !tbaa !3
  %18 = getelementptr inbounds nuw %struct.evp_pkey_st, ptr %17, i32 0, i32 14
  %19 = load ptr, ptr %18, align 8, !tbaa !33
  %20 = load ptr, ptr %5, align 8, !tbaa !82
  %21 = call i32 @evp_keymgmt_get_params(ptr noundef %16, ptr noundef %19, ptr noundef %20)
  %22 = icmp sgt i32 %21, 0
  %23 = zext i1 %22 to i32
  store i32 %23, ptr %3, align 4
  br label %43

24:                                               ; preds = %8
  %25 = load ptr, ptr %4, align 8, !tbaa !3
  %26 = getelementptr inbounds nuw %struct.evp_pkey_st, ptr %25, i32 0, i32 0
  %27 = load i32, ptr %26, align 8, !tbaa !29
  %28 = icmp ne i32 %27, 0
  br i1 %28, label %29, label %40

29:                                               ; preds = %24
  %30 = load ptr, ptr %4, align 8, !tbaa !3
  %31 = getelementptr inbounds nuw %struct.evp_pkey_st, ptr %30, i32 0, i32 13
  %32 = load ptr, ptr %31, align 8, !tbaa !32
  %33 = icmp eq ptr %32, null
  br i1 %33, label %34, label %40

34:                                               ; preds = %29
  %35 = load ptr, ptr %4, align 8, !tbaa !3
  %36 = load ptr, ptr %5, align 8, !tbaa !82
  %37 = call i32 @evp_pkey_get_params_to_ctrl(ptr noundef %35, ptr noundef %36)
  %38 = icmp sgt i32 %37, 0
  %39 = zext i1 %38 to i32
  store i32 %39, ptr %3, align 4
  br label %43

40:                                               ; preds = %29, %24
  br label %41

41:                                               ; preds = %40
  br label %42

42:                                               ; preds = %41, %2
  call void @ERR_new()
  call void @ERR_set_debug(ptr noundef @.str, i32 noundef 2459, ptr noundef @__func__.EVP_PKEY_get_params)
  call void (i32, i32, ptr, ...) @ERR_set_error(i32 noundef 6, i32 noundef 163, ptr noundef null)
  store i32 0, ptr %3, align 4
  br label %43

43:                                               ; preds = %42, %34, %13
  %44 = load i32, ptr %3, align 4
  ret i32 %44
}

; Function Attrs: nounwind uwtable
define i32 @EVP_PKEY_get_size_t_param(ptr noundef %0, ptr noundef %1, ptr noundef %2) #0 {
  %4 = alloca i32, align 4
  %5 = alloca ptr, align 8
  %6 = alloca ptr, align 8
  %7 = alloca ptr, align 8
  %8 = alloca [2 x %struct.ossl_param_st], align 16
  %9 = alloca i32, align 4
  %10 = alloca %struct.ossl_param_st, align 8
  %11 = alloca %struct.ossl_param_st, align 8
  store ptr %0, ptr %5, align 8, !tbaa !3
  store ptr %1, ptr %6, align 8, !tbaa !39
  store ptr %2, ptr %7, align 8, !tbaa !74
  call void @llvm.lifetime.start.p0(i64 80, ptr %8) #8
  %12 = load ptr, ptr %6, align 8, !tbaa !39
  %13 = icmp eq ptr %12, null
  br i1 %13, label %14, label %15

14:                                               ; preds = %3
  store i32 0, ptr %4, align 4
  store i32 1, ptr %9, align 4
  br label %31

15:                                               ; preds = %3
  %16 = getelementptr inbounds [2 x %struct.ossl_param_st], ptr %8, i64 0, i64 0
  call void @llvm.lifetime.start.p0(i64 40, ptr %10) #8
  %17 = load ptr, ptr %6, align 8, !tbaa !39
  %18 = load ptr, ptr %7, align 8, !tbaa !74
  call void @OSSL_PARAM_construct_size_t(ptr dead_on_unwind writable sret(%struct.ossl_param_st) align 8 %10, ptr noundef %17, ptr noundef %18)
  call void @llvm.memcpy.p0.p0.i64(ptr align 16 %16, ptr align 8 %10, i64 40, i1 false), !tbaa.struct !71
  call void @llvm.lifetime.end.p0(i64 40, ptr %10) #8
  %19 = getelementptr inbounds [2 x %struct.ossl_param_st], ptr %8, i64 0, i64 1
  call void @llvm.lifetime.start.p0(i64 40, ptr %11) #8
  call void @OSSL_PARAM_construct_end(ptr dead_on_unwind writable sret(%struct.ossl_param_st) align 8 %11)
  call void @llvm.memcpy.p0.p0.i64(ptr align 8 %19, ptr align 8 %11, i64 40, i1 false), !tbaa.struct !71
  call void @llvm.lifetime.end.p0(i64 40, ptr %11) #8
  %20 = load ptr, ptr %5, align 8, !tbaa !3
  %21 = getelementptr inbounds [2 x %struct.ossl_param_st], ptr %8, i64 0, i64 0
  %22 = call i32 @EVP_PKEY_get_params(ptr noundef %20, ptr noundef %21)
  %23 = icmp ne i32 %22, 0
  br i1 %23, label %24, label %28

24:                                               ; preds = %15
  %25 = getelementptr inbounds [2 x %struct.ossl_param_st], ptr %8, i64 0, i64 0
  %26 = call i32 @OSSL_PARAM_modified(ptr noundef %25)
  %27 = icmp ne i32 %26, 0
  br label %28

28:                                               ; preds = %24, %15
  %29 = phi i1 [ false, %15 ], [ %27, %24 ]
  %30 = zext i1 %29 to i32
  store i32 %30, ptr %4, align 4
  store i32 1, ptr %9, align 4
  br label %31

31:                                               ; preds = %28, %14
  call void @llvm.lifetime.end.p0(i64 80, ptr %8) #8
  %32 = load i32, ptr %4, align 4
  ret i32 %32
}