; Function Attrs: nounwind uwtable
define range(i32 0, 2) i32 @EVP_PKEY_get_size_t_param(ptr noundef %0, ptr noundef %1, ptr noundef %2) local_unnamed_addr #0 {
  %4 = alloca [2 x %struct.ossl_param_st], align 16
  %5 = alloca %struct.ossl_param_st, align 8
  call void @llvm.lifetime.start.p0(i64 80, ptr nonnull %4) #12
  %6 = icmp eq ptr %1, null
  br i1 %6, label %24, label %7

7:                                                ; preds = %3
  call void @OSSL_PARAM_construct_size_t(ptr dead_on_unwind nonnull writable sret(%struct.ossl_param_st) align 8 %4, ptr noundef nonnull %1, ptr noundef %2) #12
  %8 = getelementptr inbounds nuw i8, ptr %4, i64 40
  call void @llvm.lifetime.start.p0(i64 40, ptr nonnull %5) #12
  call void @OSSL_PARAM_construct_end(ptr dead_on_unwind nonnull writable sret(%struct.ossl_param_st) align 8 %5) #12
  call void @llvm.memcpy.p0.p0.i64(ptr noundef nonnull align 8 dereferenceable(40) %8, ptr noundef nonnull align 8 dereferenceable(40) %5, i64 40, i1 false), !tbaa.struct !73
  call void @llvm.lifetime.end.p0(i64 40, ptr nonnull %5) #12
  %.not.i = icmp eq ptr %0, null
  br i1 %.not.i, label %EVP_PKEY_get_params.exit.thread, label %9

9:                                                ; preds = %7
  %10 = getelementptr inbounds nuw i8, ptr %0, i64 96
  %11 = load ptr, ptr %10, align 8, !tbaa !30
  %.not11.i = icmp eq ptr %11, null
  br i1 %.not11.i, label %16, label %12

12:                                               ; preds = %9
  %13 = getelementptr inbounds nuw i8, ptr %0, i64 104
  %14 = load ptr, ptr %13, align 8, !tbaa !33
  %15 = call i32 @evp_keymgmt_get_params(ptr noundef nonnull %11, ptr noundef %14, ptr noundef nonnull %4) #12
  br label %EVP_PKEY_get_params.exit

16:                                               ; preds = %9
  %17 = load i32, ptr %0, align 8, !tbaa !26
  %.not12.i = icmp eq i32 %17, 0
  br i1 %.not12.i, label %EVP_PKEY_get_params.exit.thread, label %18

18:                                               ; preds = %16
  %19 = call i32 @evp_pkey_get_params_to_ctrl(ptr noundef nonnull %0, ptr noundef nonnull %4) #12
  br label %EVP_PKEY_get_params.exit

EVP_PKEY_get_params.exit.thread:                  ; preds = %7, %16
  call void @ERR_new() #12
  call void @ERR_set_debug(ptr noundef nonnull @.str, i32 noundef 2459, ptr noundef nonnull @__func__.EVP_PKEY_get_params) #12
  call void (i32, i32, ptr, ...) @ERR_set_error(i32 noundef 6, i32 noundef 163, ptr noundef null) #12
  br label %24

EVP_PKEY_get_params.exit:                         ; preds = %12, %18
  %.0.shrunk.i.in = phi i32 [ %15, %12 ], [ %19, %18 ]
  %.0.shrunk.i = icmp slt i32 %.0.shrunk.i.in, 1
  br i1 %.0.shrunk.i, label %24, label %20

20:                                               ; preds = %EVP_PKEY_get_params.exit
  %21 = call i32 @OSSL_PARAM_modified(ptr noundef nonnull %4) #12
  %22 = icmp ne i32 %21, 0
  %23 = zext i1 %22 to i32
  br label %24

24:                                               ; preds = %EVP_PKEY_get_params.exit.thread, %EVP_PKEY_get_params.exit, %20, %3
  %.0 = phi i32 [ 0, %3 ], [ 0, %EVP_PKEY_get_params.exit ], [ %23, %20 ], [ 0, %EVP_PKEY_get_params.exit.thread ]
  call void @llvm.lifetime.end.p0(i64 80, ptr nonnull %4) #12
  ret i32 %.0
}